target datalayout = "e-m:e-p270:32:32-p271:32:32-p272:64:64-i64:64-i128:128-f80:128-n8:16:32:64-S128"
target triple = "x86_64-pc-linux-gnu"

%"class.spacer::pob" = type { i32, %class.ref, ptr, %class.obj_ref, %class.ref_vector, %class.obj_ref, i64, i32, %class.scoped_ptr, %class.ptr_vector.0, %class.ptr_vector.2, i32, %class.obj_ref, i32, %class.scoped_ptr.4 }
%class.ref = type { ptr }
%class.ref_vector = type { %class.ref_vector_core }
%class.ref_vector_core = type { %class.ref_manager_wrapper, %class.ptr_vector }
%class.ref_manager_wrapper = type { ptr }
%class.ptr_vector = type { %class.vector }
%class.vector = type { ptr }
%class.scoped_ptr = type { ptr }
%class.ptr_vector.0 = type { %class.vector.1 }
%class.vector.1 = type { ptr }
%class.ptr_vector.2 = type { %class.vector.3 }
%class.vector.3 = type { ptr }
%class.obj_ref = type { ptr, ptr }
%class.scoped_ptr.4 = type { ptr }
%"class.spacer::pred_transformer" = type { ptr, ptr, ptr, %class.obj_ref.5, %class.ref_vector.6, %class.ptr_vector.11, %"class.spacer::pred_transformer::pt_rules", %class.ptr_vector.18, %class.scoped_ptr.20, %class.ref.21, %"class.spacer::pred_transformer::pob_manager", %"class.spacer::pred_transformer::frames", %class.ref_vector_core.30, i32, %class.ref_vector.34, %class.obj_ref, %class.obj_ref, %class.obj_ref.39, %class.obj_ref.39, i8, %class.ptr_vector.9, %"struct.spacer::pred_transformer::stats", %class.stopwatch, %class.stopwatch, %class.stopwatch, %class.stopwatch, i8, [7 x i8], %"class.spacer::pred_transformer::cluster_db" }
%class.obj_ref.5 = type { ptr, ptr }
%class.ref_vector.6 = type { %class.ref_vector_core.7 }
%class.ref_vector_core.7 = type { %class.ref_manager_wrapper.8, %class.ptr_vector.9 }
%class.ref_manager_wrapper.8 = type { ptr }
%class.ptr_vector.11 = type { %class.vector.12 }
%class.vector.12 = type { ptr }
%"class.spacer::pred_transformer::pt_rules" = type { %class.obj_map, %class.obj_map.13 }
%class.obj_map = type { %class.core_hashtable }
%class.core_hashtable = type <{ ptr, i32, i32, i32, [4 x i8] }>
%class.obj_map.13 = type { %class.core_hashtable.14 }
%class.core_hashtable.14 = type <{ ptr, i32, i32, i32, [4 x i8] }>
%class.ptr_vector.18 = type { %class.vector.19 }
%class.vector.19 = type { ptr }
%class.scoped_ptr.20 = type { ptr }
%class.ref.21 = type { ptr }
%"class.spacer::pred_transformer::pob_manager" = type { ptr, %class.obj_map.22, %class.ref_vector_core.27 }
%class.obj_map.22 = type { %class.core_hashtable.23 }
%class.core_hashtable.23 = type <{ ptr, i32, i32, i32, [4 x i8] }>
%class.ref_vector_core.27 = type { %class.ptr_vector.0 }
%"class.spacer::pred_transformer::frames" = type <{ ptr, %class.ref_vector_core.28, %class.ref_vector_core.28, %class.ref_vector_core.28, i32, i8, [3 x i8] }>
%class.ref_vector_core.28 = type { %class.ptr_vector.2 }
%class.ref_vector_core.30 = type { %class.ptr_vector.32 }
%class.ptr_vector.32 = type { %class.vector.33 }
%class.vector.33 = type { ptr }
%class.ref_vector.34 = type { %class.ref_vector_core.35 }
%class.ref_vector_core.35 = type { %class.ref_manager_wrapper.36, %class.ptr_vector.37 }
%class.ref_manager_wrapper.36 = type { ptr }
%class.ptr_vector.37 = type { %class.vector.38 }
%class.vector.38 = type { ptr }
%class.obj_ref.39 = type { ptr, ptr }
%class.ptr_vector.9 = type { %class.vector.10 }
%class.vector.10 = type { ptr }
%"struct.spacer::pred_transformer::stats" = type { i32, i32, i32, i32, i32, i32 }
%class.stopwatch = type <{ %"class.std::chrono::time_point", %"class.std::chrono::duration", i8, [7 x i8] }>
%"class.std::chrono::time_point" = type { %"class.std::chrono::duration" }
%"class.std::chrono::duration" = type { i64 }
%"class.spacer::pred_transformer::cluster_db" = type <{ %class.ref_vector_core.40, i32, [4 x i8] }>
%class.ref_vector_core.40 = type { %class.ptr_vector.42 }
%class.ptr_vector.42 = type { %class.vector.43 }
%class.vector.43 = type { ptr }
%"class.spacer::pob_queue" = type { %class.ref, i32, i32, %"class.std::priority_queue" }
%"class.std::priority_queue" = type <{ %"class.std::vector", [8 x i8] }>
%"class.std::vector" = type { %"struct.std::_Vector_base" }
%"struct.std::_Vector_base" = type { %"struct.std::_Vector_base<spacer::pob *, std::allocator<spacer::pob *>>::_Vector_impl" }
%"struct.std::_Vector_base<spacer::pob *, std::allocator<spacer::pob *>>::_Vector_impl" = type { %"struct.std::_Vector_base<spacer::pob *, std::allocator<spacer::pob *>>::_Vector_impl_data" }
%"struct.std::_Vector_base<spacer::pob *, std::allocator<spacer::pob *>>::_Vector_impl_data" = type { ptr, ptr, ptr }

; Function Attrs: mustprogress nounwind uwtable
define linkonce_odr hidden noundef nonnull align 8 dereferenceable(712) ptr @_ZNK6spacer16pred_transformer11get_contextEv(ptr noundef nonnull align 8 dereferenceable(472) %0) #5 comdat align 2 {
  %2 = alloca ptr, align 8
  store ptr %0, ptr %2, align 8, !tbaa !8
  %3 = load ptr, ptr %2, align 8
  %4 = getelementptr inbounds nuw %"class.spacer::pred_transformer", ptr %3, i32 0, i32 2
  %5 = load ptr, ptr %4, align 8, !tbaa !128
  ret ptr %5
}

; Function Attrs: mustprogress nounwind uwtable
define hidden void @_ZN6spacer7context10new_pob_ehEPNS_3pobE(ptr noundef nonnull align 8 dereferenceable(712) %0, ptr noundef %1) #5 align 2 {
  %3 = alloca ptr, align 8
  %4 = alloca ptr, align 8
  store ptr %0, ptr %3, align 8, !tbaa !129
  store ptr %1, ptr %4, align 8, !tbaa !3
  ret void
}

; Function Attrs: mustprogress nounwind uwtable
define linkonce_odr hidden noundef nonnull align 8 dereferenceable(712) ptr @_ZNK6spacer3pob11get_contextEv(ptr noundef nonnull align 8 dereferenceable(152) %0) #5 comdat align 2 {
  %2 = alloca ptr, align 8
  store ptr %0, ptr %2, align 8, !tbaa !3
  %3 = load ptr, ptr %2, align 8
  %4 = getelementptr inbounds nuw %"class.spacer::pob", ptr %3, i32 0, i32 2
  %5 = load ptr, ptr %4, align 8, !tbaa !36
  %6 = call noundef nonnull align 8 dereferenceable(712) ptr @_ZNK6spacer16pred_transformer11get_contextEv(ptr noundef nonnull align 8 dereferenceable(472) %5)
  ret ptr %6
}

; Function Attrs: mustprogress nounwind uwtable
define linkonce_odr hidden void @_ZN6spacer3pob12set_in_queueEb(ptr noundef nonnull align 8 dereferenceable(152) %0, i1 noundef zeroext %1) #5 comdat align 2 {
  %3 = alloca ptr, align 8
  %4 = alloca i8, align 1
  store ptr %0, ptr %3, align 8, !tbaa !3
  %5 = zext i1 %1 to i8
  store i8 %5, ptr %4, align 1, !tbaa !12
  %6 = load ptr, ptr %3, align 8
  %7 = load i8, ptr %4, align 1, !tbaa !12, !range !40, !noundef !41
  %8 = trunc i8 %7 to i1
  %9 = zext i1 %8 to i32
  %10 = getelementptr inbounds nuw %"class.spacer::pob", ptr %6, i32 0, i32 6
  %11 = zext i32 %9 to i64
  %12 = load i64, ptr %10, align 8
  %13 = and i64 %11, 1
  %14 = shl i64 %13, 50
  %15 = and i64 %12, -1125899906842625
  %16 = or i64 %15, %14
  store i64 %16, ptr %10, align 8
  ret void
}

; Function Attrs: mustprogress nounwind uwtable
define linkonce_odr hidden noundef zeroext i1 @_ZNK6spacer3pob11is_in_queueEv(ptr noundef nonnull align 8 dereferenceable(152) %0) #5 comdat align 2 {
  %2 = alloca ptr, align 8
  store ptr %0, ptr %2, align 8, !tbaa !3
  %3 = load ptr, ptr %2, align 8
  %4 = getelementptr inbounds nuw %"class.spacer::pob", ptr %3, i32 0, i32 6
  %5 = load i64, ptr %4, align 8
  %6 = lshr i64 %5, 50
  %7 = and i64 %6, 1
  %8 = trunc i64 %7 to i32
  %9 = icmp ne i32 %8, 0
  ret i1 %9
}

; Function Attrs: mustprogress uwtable
define hidden void @_ZN6spacer9pob_queue4pushERNS_3pobE(ptr noundef nonnull align 8 dereferenceable(48) %0, ptr noundef nonnull align 8 dereferenceable(152) %1) #4 align 2 {
  %3 = alloca ptr, align 8
  %4 = alloca ptr, align 8
  %5 = alloca ptr, align 8
  store ptr %0, ptr %3, align 8, !tbaa !197
  store ptr %1, ptr %4, align 8, !tbaa !3
  %6 = load ptr, ptr %3, align 8
  %7 = load ptr, ptr %4, align 8, !tbaa !3
  %8 = call noundef zeroext i1 @_ZNK6spacer3pob11is_in_queueEv(ptr noundef nonnull align 8 dereferenceable(152) %7)
  br i1 %8, label %16, label %9

9:                                                ; preds = %2
  %10 = load ptr, ptr %4, align 8, !tbaa !3
  call void @_ZN6spacer3pob12set_in_queueEb(ptr noundef nonnull align 8 dereferenceable(152) %10, i1 noundef zeroext true)
  %11 = getelementptr inbounds nuw %"class.spacer::pob_queue", ptr %6, i32 0, i32 3
  call void @llvm.lifetime.start.p0(i64 8, ptr %5) #3
  %12 = load ptr, ptr %4, align 8, !tbaa !3
  store ptr %12, ptr %5, align 8, !tbaa !3
  call void @_ZNSt14priority_queueIPN6spacer3pobESt6vectorIS2_SaIS2_EENS0_11pob_gt_procEE4pushEOS2_(ptr noundef nonnull align 8 dereferenceable(25) %11, ptr noundef nonnull align 8 dereferenceable(8) %5)
  call void @llvm.lifetime.end.p0(i64 8, ptr %5) #3
  %13 = load ptr, ptr %4, align 8, !tbaa !3
  %14 = call noundef nonnull align 8 dereferenceable(712) ptr @_ZNK6spacer3pob11get_contextEv(ptr noundef nonnull align 8 dereferenceable(152) %13)
  %15 = load ptr, ptr %4, align 8, !tbaa !3
  call void @_ZN6spacer7context10new_pob_ehEPNS_3pobE(ptr noundef nonnull align 8 dereferenceable(712) %14, ptr noundef %15)
  br label %16

16:                                               ; preds = %9, %2
  ret void
}