; Function Attrs: mustprogress uwtable
define hidden void @_ZN6spacer9pob_queue4pushERNS_3pobE(ptr noundef nonnull align 8 dereferenceable(48) %0, ptr noundef nonnull align 8 dereferenceable(152) %1) local_unnamed_addr #3 align 2 {
  %3 = alloca ptr, align 8
  %4 = getelementptr inbounds nuw i8, ptr %1, i64 72
  %5 = load i64, ptr %4, align 8
  %6 = and i64 %5, 1125899906842624
  %.not = icmp eq i64 %6, 0
  br i1 %.not, label %7, label %10

7:                                                ; preds = %2
  %8 = or disjoint i64 %5, 1125899906842624
  store i64 %8, ptr %4, align 8
  %9 = getelementptr inbounds nuw i8, ptr %0, i64 16
  call void @llvm.lifetime.start.p0(i64 8, ptr nonnull %3) #28
  store ptr %1, ptr %3, align 8, !tbaa !101
  call void @_ZNSt14priority_queueIPN6spacer3pobESt6vectorIS2_SaIS2_EENS0_11pob_gt_procEE4pushEOS2_(ptr noundef nonnull align 8 dereferenceable(25) %9, ptr noundef nonnull align 8 dereferenceable(8) %3)
  call void @llvm.lifetime.end.p0(i64 8, ptr nonnull %3) #28
  br label %10

10:                                               ; preds = %7, %2
  ret void
}